target datalayout = "e-m:e-p270:32:32-p271:32:32-p272:64:64-i64:64-i128:128-f80:128-n8:16:32:64-S128"
target triple = "x86_64-pc-linux-gnu"

%struct.RepeatInfo = type { i8, i32, i32, i32, i32, i32, i32, [2 x i32], i32, i32, i32, i32, i32 }
%struct.RepeatRingControl = type { i64, i16, i16 }

; Function Attrs: nounwind uwtable
define internal i32 @ringOccupancy(ptr noundef %0, i32 noundef %1) #0 {
  %3 = alloca i32, align 4
  %4 = alloca ptr, align 8
  %5 = alloca i32, align 4
  store ptr %0, ptr %4, align 8
  store i32 %1, ptr %5, align 4
  %6 = load ptr, ptr %4, align 8
  %7 = getelementptr inbounds nuw %struct.RepeatRingControl, ptr %6, i32 0, i32 2
  %8 = load i16, ptr %7, align 2
  %9 = zext i16 %8 to i32
  %10 = load ptr, ptr %4, align 8
  %11 = getelementptr inbounds nuw %struct.RepeatRingControl, ptr %10, i32 0, i32 1
  %12 = load i16, ptr %11, align 8
  %13 = zext i16 %12 to i32
  %14 = icmp sgt i32 %9, %13
  br i1 %14, label %15, label %25

15:                                               ; preds = %2
  %16 = load ptr, ptr %4, align 8
  %17 = getelementptr inbounds nuw %struct.RepeatRingControl, ptr %16, i32 0, i32 2
  %18 = load i16, ptr %17, align 2
  %19 = zext i16 %18 to i32
  %20 = load ptr, ptr %4, align 8
  %21 = getelementptr inbounds nuw %struct.RepeatRingControl, ptr %20, i32 0, i32 1
  %22 = load i16, ptr %21, align 8
  %23 = zext i16 %22 to i32
  %24 = sub nsw i32 %19, %23
  store i32 %24, ptr %3, align 4
  br label %37

25:                                               ; preds = %2
  %26 = load i32, ptr %5, align 4
  %27 = load ptr, ptr %4, align 8
  %28 = getelementptr inbounds nuw %struct.RepeatRingControl, ptr %27, i32 0, i32 1
  %29 = load i16, ptr %28, align 8
  %30 = zext i16 %29 to i32
  %31 = load ptr, ptr %4, align 8
  %32 = getelementptr inbounds nuw %struct.RepeatRingControl, ptr %31, i32 0, i32 2
  %33 = load i16, ptr %32, align 2
  %34 = zext i16 %33 to i32
  %35 = sub nsw i32 %30, %34
  %36 = sub i32 %26, %35
  store i32 %36, ptr %3, align 4
  br label %37

37:                                               ; preds = %25, %15
  %38 = load i32, ptr %3, align 4
  ret i32 %38
}

; Function Attrs: nounwind uwtable
define hidden i32 @repeatHasMatchSparseOptimalP(ptr noundef %0, ptr noundef %1, ptr noundef %2, i64 noundef %3) #0 {
  %5 = alloca i32, align 4
  %6 = alloca ptr, align 8
  %7 = alloca ptr, align 8
  %8 = alloca ptr, align 8
  %9 = alloca i64, align 8
  %10 = alloca ptr, align 8
  %11 = alloca ptr, align 8
  %12 = alloca i32, align 4
  %13 = alloca i32, align 4
  %14 = alloca i32, align 4
  %15 = alloca i32, align 4
  %16 = alloca i32, align 4
  %17 = alloca i32, align 4
  %18 = alloca i32, align 4
  %19 = alloca i32, align 4
  %20 = alloca i32, align 4
  %21 = alloca i32, align 4
  %22 = alloca i32, align 4
  %23 = alloca i32, align 4
  %24 = alloca i8, align 1
  store ptr %0, ptr %6, align 8
  store ptr %1, ptr %7, align 8
  store ptr %2, ptr %8, align 8
  store i64 %3, ptr %9, align 8
  br label %25

25:                                               ; preds = %4
  br label %26

26:                                               ; preds = %25
  call void @llvm.lifetime.start.p0(i64 8, ptr %10) #7
  %27 = load ptr, ptr %7, align 8
  store ptr %27, ptr %10, align 8
  call void @llvm.lifetime.start.p0(i64 8, ptr %11) #7
  %28 = load ptr, ptr %8, align 8
  store ptr %28, ptr %11, align 8
  %29 = load i64, ptr %9, align 8
  %30 = load ptr, ptr %10, align 8
  %31 = getelementptr inbounds nuw %struct.RepeatRingControl, ptr %30, i32 0, i32 0
  %32 = load i64, ptr %31, align 8
  %33 = load ptr, ptr %6, align 8
  %34 = getelementptr inbounds nuw %struct.RepeatInfo, ptr %33, i32 0, i32 1
  %35 = load i32, ptr %34, align 4
  %36 = zext i32 %35 to i64
  %37 = add i64 %32, %36
  %38 = icmp ult i64 %29, %37
  br i1 %38, label %39, label %43

39:                                               ; preds = %26
  br label %40

40:                                               ; preds = %39
  br label %41

41:                                               ; preds = %40
  br label %42

42:                                               ; preds = %41
  store i32 0, ptr %5, align 4
  store i32 1, ptr %12, align 4
  br label %229

43:                                               ; preds = %26
  %44 = load i64, ptr %9, align 8
  %45 = load ptr, ptr %6, align 8
  %46 = load ptr, ptr %10, align 8
  %47 = load ptr, ptr %8, align 8
  %48 = call i64 @sparseLastTop(ptr noundef %45, ptr noundef %46, ptr noundef %47)
  %49 = load ptr, ptr %6, align 8
  %50 = getelementptr inbounds nuw %struct.RepeatInfo, ptr %49, i32 0, i32 2
  %51 = load i32, ptr %50, align 4
  %52 = zext i32 %51 to i64
  %53 = add i64 %48, %52
  %54 = icmp ugt i64 %44, %53
  br i1 %54, label %55, label %59

55:                                               ; preds = %43
  br label %56

56:                                               ; preds = %55
  br label %57

57:                                               ; preds = %56
  br label %58

58:                                               ; preds = %57
  store i32 2, ptr %5, align 4
  store i32 1, ptr %12, align 4
  br label %229

59:                                               ; preds = %43
  br label %60

60:                                               ; preds = %59
  call void @llvm.lifetime.start.p0(i64 4, ptr %13) #7
  %61 = load i64, ptr %9, align 8
  %62 = load ptr, ptr %10, align 8
  %63 = getelementptr inbounds nuw %struct.RepeatRingControl, ptr %62, i32 0, i32 0
  %64 = load i64, ptr %63, align 8
  %65 = sub i64 %61, %64
  %66 = trunc i64 %65 to i32
  store i32 %66, ptr %13, align 4
  call void @llvm.lifetime.start.p0(i64 4, ptr %14) #7
  %67 = load ptr, ptr %6, align 8
  %68 = getelementptr inbounds nuw %struct.RepeatInfo, ptr %67, i32 0, i32 9
  %69 = load i32, ptr %68, align 4
  store i32 %69, ptr %14, align 4
  call void @llvm.lifetime.start.p0(i64 4, ptr %15) #7
  %70 = load ptr, ptr %6, align 8
  %71 = getelementptr inbounds nuw %struct.RepeatInfo, ptr %70, i32 0, i32 8
  %72 = load i32, ptr %71, align 4
  store i32 %72, ptr %15, align 4
  call void @llvm.lifetime.start.p0(i64 4, ptr %16) #7
  %73 = load ptr, ptr %10, align 8
  %74 = load i32, ptr %15, align 4
  %75 = call i32 @ringOccupancy(ptr noundef %73, i32 noundef %74)
  store i32 %75, ptr %16, align 4
  call void @llvm.lifetime.start.p0(i64 4, ptr %17) #7
  %76 = load i32, ptr %13, align 4
  %77 = load ptr, ptr %6, align 8
  %78 = getelementptr inbounds nuw %struct.RepeatInfo, ptr %77, i32 0, i32 2
  %79 = load i32, ptr %78, align 4
  %80 = icmp ugt i32 %76, %79
  br i1 %80, label %81, label %87

81:                                               ; preds = %60
  %82 = load i32, ptr %13, align 4
  %83 = load ptr, ptr %6, align 8
  %84 = getelementptr inbounds nuw %struct.RepeatInfo, ptr %83, i32 0, i32 2
  %85 = load i32, ptr %84, align 4
  %86 = sub i32 %82, %85
  br label %88

87:                                               ; preds = %60
  br label %88

88:                                               ; preds = %87, %81
  %89 = phi i32 [ %86, %81 ], [ 0, %87 ]
  store i32 %89, ptr %17, align 4
  call void @llvm.lifetime.start.p0(i64 4, ptr %18) #7
  %90 = load i32, ptr %13, align 4
  %91 = load ptr, ptr %6, align 8
  %92 = getelementptr inbounds nuw %struct.RepeatInfo, ptr %91, i32 0, i32 1
  %93 = load i32, ptr %92, align 4
  %94 = sub i32 %90, %93
  %95 = load i32, ptr %16, align 4
  %96 = load i32, ptr %14, align 4
  %97 = mul i32 %95, %96
  %98 = sub i32 %97, 1
  %99 = icmp ult i32 %94, %98
  br i1 %99, label %100, label %106

100:                                              ; preds = %88
  %101 = load i32, ptr %13, align 4
  %102 = load ptr, ptr %6, align 8
  %103 = getelementptr inbounds nuw %struct.RepeatInfo, ptr %102, i32 0, i32 1
  %104 = load i32, ptr %103, align 4
  %105 = sub i32 %101, %104
  br label %111

106:                                              ; preds = %88
  %107 = load i32, ptr %16, align 4
  %108 = load i32, ptr %14, align 4
  %109 = mul i32 %107, %108
  %110 = sub i32 %109, 1
  br label %111

111:                                              ; preds = %106, %100
  %112 = phi i32 [ %105, %100 ], [ %110, %106 ]
  store i32 %112, ptr %18, align 4
  br label %113

113:                                              ; preds = %111
  br label %114

114:                                              ; preds = %113
  br label %115

115:                                              ; preds = %114
  call void @llvm.lifetime.start.p0(i64 4, ptr %19) #7
  %116 = load i32, ptr %17, align 4
  %117 = load i32, ptr %14, align 4
  %118 = udiv i32 %116, %117
  store i32 %118, ptr %19, align 4
  call void @llvm.lifetime.start.p0(i64 4, ptr %20) #7
  %119 = load i32, ptr %18, align 4
  %120 = load i32, ptr %14, align 4
  %121 = udiv i32 %119, %120
  store i32 %121, ptr %20, align 4
  %122 = load i32, ptr %19, align 4
  %123 = load i32, ptr %16, align 4
  %124 = icmp uge i32 %122, %123
  br i1 %124, label %125, label %129

125:                                              ; preds = %115
  br label %126

126:                                              ; preds = %125
  br label %127

127:                                              ; preds = %126
  br label %128

128:                                              ; preds = %127
  store i32 0, ptr %5, align 4
  store i32 1, ptr %12, align 4
  br label %228

129:                                              ; preds = %115
  call void @llvm.lifetime.start.p0(i64 4, ptr %21) #7
  %130 = load i32, ptr %17, align 4
  %131 = load i32, ptr %19, align 4
  %132 = load i32, ptr %14, align 4
  %133 = mul i32 %131, %132
  %134 = sub i32 %130, %133
  store i32 %134, ptr %21, align 4
  call void @llvm.lifetime.start.p0(i64 4, ptr %22) #7
  %135 = load i32, ptr %18, align 4
  %136 = load i32, ptr %20, align 4
  %137 = load i32, ptr %14, align 4
  %138 = mul i32 %136, %137
  %139 = sub i32 %135, %138
  store i32 %139, ptr %22, align 4
  %140 = load ptr, ptr %10, align 8
  %141 = getelementptr inbounds nuw %struct.RepeatRingControl, ptr %140, i32 0, i32 1
  %142 = load i16, ptr %141, align 8
  %143 = zext i16 %142 to i32
  %144 = load i32, ptr %19, align 4
  %145 = add i32 %144, %143
  store i32 %145, ptr %19, align 4
  %146 = load ptr, ptr %10, align 8
  %147 = getelementptr inbounds nuw %struct.RepeatRingControl, ptr %146, i32 0, i32 1
  %148 = load i16, ptr %147, align 8
  %149 = zext i16 %148 to i32
  %150 = load i32, ptr %20, align 4
  %151 = add i32 %150, %149
  store i32 %151, ptr %20, align 4
  %152 = load i32, ptr %19, align 4
  %153 = load i32, ptr %15, align 4
  %154 = icmp uge i32 %152, %153
  br i1 %154, label %155, label %162

155:                                              ; preds = %129
  %156 = load i32, ptr %15, align 4
  %157 = load i32, ptr %19, align 4
  %158 = sub i32 %157, %156
  store i32 %158, ptr %19, align 4
  %159 = load i32, ptr %15, align 4
  %160 = load i32, ptr %20, align 4
  %161 = sub i32 %160, %159
  store i32 %161, ptr %20, align 4
  br label %171

162:                                              ; preds = %129
  %163 = load i32, ptr %20, align 4
  %164 = load i32, ptr %15, align 4
  %165 = icmp uge i32 %163, %164
  br i1 %165, label %166, label %170

166:                                              ; preds = %162
  %167 = load i32, ptr %15, align 4
  %168 = load i32, ptr %20, align 4
  %169 = sub i32 %168, %167
  store i32 %169, ptr %20, align 4
  br label %170

170:                                              ; preds = %166, %162
  br label %171

171:                                              ; preds = %170, %155
  br label %172

172:                                              ; preds = %171
  br label %173

173:                                              ; preds = %172
  br label %174

174:                                              ; preds = %173
  call void @llvm.lifetime.start.p0(i64 4, ptr %23) #7
  call void @llvm.lifetime.start.p0(i64 1, ptr %24) #7
  %175 = load i32, ptr %19, align 4
  %176 = load i32, ptr %20, align 4
  %177 = icmp ule i32 %175, %176
  %178 = zext i1 %177 to i32
  %179 = trunc i32 %178 to i8
  store i8 %179, ptr %24, align 1
  %180 = load i8, ptr %24, align 1
  %181 = icmp ne i8 %180, 0
  br i1 %181, label %182, label %188

182:                                              ; preds = %174
  %183 = load i32, ptr %20, align 4
  %184 = load i32, ptr %14, align 4
  %185 = mul i32 %183, %184
  %186 = load i32, ptr %22, align 4
  %187 = add i32 %185, %186
  store i32 %187, ptr %23, align 4
  br label %192

188:                                              ; preds = %174
  %189 = load i32, ptr %15, align 4
  %190 = load i32, ptr %14, align 4
  %191 = mul i32 %189, %190
  store i32 %191, ptr %23, align 4
  br label %192

192:                                              ; preds = %188, %182
  %193 = load i32, ptr %19, align 4
  %194 = load i32, ptr %14, align 4
  %195 = mul i32 %193, %194
  %196 = load i32, ptr %21, align 4
  %197 = add i32 %195, %196
  store i32 %197, ptr %17, align 4
  %198 = load ptr, ptr %6, align 8
  %199 = load ptr, ptr %11, align 8
  %200 = load i32, ptr %17, align 4
  %201 = load i32, ptr %23, align 4
  %202 = call signext i8 @sparseHasMatch(ptr noundef %198, ptr noundef %199, i32 noundef %200, i32 noundef %201)
  %203 = icmp ne i8 %202, 0
  br i1 %203, label %204, label %205

204:                                              ; preds = %192
  store i32 1, ptr %5, align 4
  store i32 1, ptr %12, align 4
  br label %227

205:                                              ; preds = %192
  %206 = load i8, ptr %24, align 1
  %207 = icmp ne i8 %206, 0
  br i1 %207, label %226, label %208

208:                                              ; preds = %205
  %209 = load i32, ptr %15, align 4
  %210 = load ptr, ptr %10, align 8
  %211 = getelementptr inbounds nuw %struct.RepeatRingControl, ptr %210, i32 0, i32 1
  %212 = load i16, ptr %211, align 8
  %213 = zext i16 %212 to i32
  %214 = sub i32 %209, %213
  %215 = load i32, ptr %14, align 4
  %216 = mul i32 %214, %215
  %217 = load i32, ptr %18, align 4
  %218 = sub i32 %217, %216
  store i32 %218, ptr %18, align 4
  %219 = load ptr, ptr %6, align 8
  %220 = load ptr, ptr %11, align 8
  %221 = load i32, ptr %18, align 4
  %222 = call signext i8 @sparseHasMatch(ptr noundef %219, ptr noundef %220, i32 noundef 0, i32 noundef %221)
  %223 = icmp ne i8 %222, 0
  br i1 %223, label %224, label %225

224:                                              ; preds = %208
  store i32 1, ptr %5, align 4
  store i32 1, ptr %12, align 4
  br label %227

225:                                              ; preds = %208
  br label %226

226:                                              ; preds = %225, %205
  store i32 0, ptr %5, align 4
  store i32 1, ptr %12, align 4
  br label %227

227:                                              ; preds = %226, %224, %204
  call void @llvm.lifetime.end.p0(i64 1, ptr %24) #7
  call void @llvm.lifetime.end.p0(i64 4, ptr %23) #7
  call void @llvm.lifetime.end.p0(i64 4, ptr %22) #7
  call void @llvm.lifetime.end.p0(i64 4, ptr %21) #7
  br label %228

228:                                              ; preds = %227, %128
  call void @llvm.lifetime.end.p0(i64 4, ptr %20) #7
  call void @llvm.lifetime.end.p0(i64 4, ptr %19) #7
  call void @llvm.lifetime.end.p0(i64 4, ptr %18) #7
  call void @llvm.lifetime.end.p0(i64 4, ptr %17) #7
  call void @llvm.lifetime.end.p0(i64 4, ptr %16) #7
  call void @llvm.lifetime.end.p0(i64 4, ptr %15) #7
  call void @llvm.lifetime.end.p0(i64 4, ptr %14) #7
  call void @llvm.lifetime.end.p0(i64 4, ptr %13) #7
  br label %229

229:                                              ; preds = %228, %58, %42
  call void @llvm.lifetime.end.p0(i64 8, ptr %11) #7
  call void @llvm.lifetime.end.p0(i64 8, ptr %10) #7
  %230 = load i32, ptr %5, align 4
  ret i32 %230
}