; Function Attrs: nofree norecurse nosync nounwind memory(read, inaccessiblemem: none) uwtable
define hidden range(i32 0, 3) i32 @repeatHasMatchSparseOptimalP(ptr noundef %0, ptr noundef readonly captures(none) %1, ptr noundef readonly captures(none) %2, i64 noundef %3) local_unnamed_addr #6 {
  %5 = load i64, ptr %1, align 8
  %6 = getelementptr inbounds nuw i8, ptr %0, i64 4
  %7 = load i32, ptr %6, align 4
  %8 = zext i32 %7 to i64
  %9 = add i64 %5, %8
  %10 = icmp ult i64 %3, %9
  br i1 %10, label %52, label %11

11:                                               ; preds = %4
  %12 = tail call fastcc i64 @sparseLastTop(ptr noundef nonnull %0, ptr noundef nonnull %1, ptr noundef %2)
  %13 = getelementptr inbounds nuw i8, ptr %0, i64 8
  %14 = load i32, ptr %13, align 4
  %15 = zext i32 %14 to i64
  %16 = add i64 %12, %15
  %17 = icmp ugt i64 %3, %16
  br i1 %17, label %52, label %18

18:                                               ; preds = %11
  %19 = sub i64 %3, %5
  %20 = trunc i64 %19 to i32
  %21 = getelementptr inbounds nuw i8, ptr %0, i64 40
  %22 = load i32, ptr %21, align 4
  %23 = getelementptr inbounds nuw i8, ptr %0, i64 36
  %24 = load i32, ptr %23, align 4
  %25 = getelementptr i8, ptr %1, i64 8
  %.val = load i16, ptr %25, align 8
  %26 = getelementptr i8, ptr %1, i64 10
  %.val99 = load i16, ptr %26, align 2
  %27 = zext i16 %.val99 to i32
  %28 = zext i16 %.val to i32
  %29 = icmp ugt i16 %.val99, %.val
  %30 = sub nsw i32 %27, %28
  %31 = select i1 %29, i32 0, i32 %24
  %.0.i = add i32 %30, %31
  %spec.select = tail call i32 @llvm.usub.sat.i32(i32 %20, i32 %14)
  %32 = sub i32 %20, %7
  %33 = mul i32 %.0.i, %22
  %34 = add i32 %33, -1
  %35 = tail call i32 @llvm.umin.i32(i32 %32, i32 %34)
  %36 = udiv i32 %spec.select, %22
  %.not = icmp ult i32 %36, %.0.i
  br i1 %.not, label %37, label %52

37:                                               ; preds = %18
  %38 = udiv i32 %35, %22
  %39 = add i32 %36, %28
  %40 = add i32 %38, %28
  %.not92 = icmp ult i32 %39, %24
  %.not93 = icmp ult i32 %40, %24
  %41 = select i1 %.not92, i32 0, i32 %24
  %.079 = sub nuw i32 %39, %41
  %42 = and i1 %.not92, %.not93
  %.pn = select i1 %42, i32 0, i32 %24
  %.078 = sub i32 %40, %.pn
  %.not94 = icmp ugt i32 %.079, %.078
  %reass.add102 = sub i32 %.078, %38
  %reass.mul103 = mul i32 %reass.add102, %22
  %43 = add i32 %reass.mul103, %35
  %44 = mul i32 %24, %22
  %.077 = select i1 %.not94, i32 %44, i32 %43
  %reass.add = sub i32 %.079, %36
  %reass.mul = mul i32 %reass.add, %22
  %45 = add i32 %reass.mul, %spec.select
  %46 = tail call fastcc signext i8 @sparseHasMatch(ptr noundef nonnull %0, ptr noundef %2, i32 noundef %45, i32 noundef %.077)
  %.not95 = icmp eq i8 %46, 0
  br i1 %.not95, label %47, label %52

47:                                               ; preds = %37
  br i1 %.not94, label %48, label %51

48:                                               ; preds = %47
  %.neg = sub i32 %28, %24
  %.neg96 = mul i32 %.neg, %22
  %49 = add i32 %35, %.neg96
  %50 = tail call fastcc signext i8 @sparseHasMatch(ptr noundef nonnull %0, ptr noundef %2, i32 noundef 0, i32 noundef %49)
  %.not97 = icmp eq i8 %50, 0
  br i1 %.not97, label %51, label %52

51:                                               ; preds = %48, %47
  br label %52

52:                                               ; preds = %18, %48, %37, %51, %11, %4
  %.0 = phi i32 [ 0, %4 ], [ 2, %11 ], [ 0, %18 ], [ 0, %51 ], [ 1, %37 ], [ 1, %48 ]
  ret i32 %.0
}